target datalayout = "e-m:e-p270:32:32-p271:32:32-p272:64:64-i64:64-i128:128-f80:128-n8:16:32:64-S128"
target triple = "x86_64-pc-linux-gnu"

@save_argc = internal global i32 0, align 4
@save_argv = internal global ptr null, align 8
@environ = external global ptr, align 8
@new_environ = internal global ptr null, align 8
@frozen_environ = internal global ptr null, align 8
@empty_environ = internal global [1 x ptr] zeroinitializer, align 8

; Function Attrs: nounwind uwtable
define hidden void @cleanup_ps_args(ptr noundef %0) #0 {
  %2 = alloca ptr, align 8
  %3 = alloca i32, align 4
  %4 = alloca i32, align 4
  store ptr %0, ptr %2, align 8
  %5 = load ptr, ptr @save_argv, align 8
  %6 = icmp ne ptr %5, null
  br i1 %6, label %7, label %45

7:                                                ; preds = %1
  store ptr null, ptr @save_argv, align 8
  store i32 0, ptr @save_argc, align 4
  store i32 0, ptr %3, align 4
  br label %8

8:                                                ; preds = %21, %7
  %9 = load ptr, ptr @frozen_environ, align 8
  %10 = load i32, ptr %3, align 4
  %11 = sext i32 %10 to i64
  %12 = getelementptr inbounds ptr, ptr %9, i64 %11
  %13 = load ptr, ptr %12, align 8
  %14 = icmp ne ptr %13, null
  br i1 %14, label %15, label %24

15:                                               ; preds = %8
  %16 = load ptr, ptr @frozen_environ, align 8
  %17 = load i32, ptr %3, align 4
  %18 = sext i32 %17 to i64
  %19 = getelementptr inbounds ptr, ptr %16, i64 %18
  %20 = load ptr, ptr %19, align 8
  call void @free(ptr noundef %20) #8
  br label %21

21:                                               ; preds = %15
  %22 = load i32, ptr %3, align 4
  %23 = add nsw i32 %22, 1
  store i32 %23, ptr %3, align 4
  br label %8

24:                                               ; preds = %8
  %25 = load ptr, ptr @frozen_environ, align 8
  call void @free(ptr noundef %25) #8
  %26 = load ptr, ptr @new_environ, align 8
  call void @free(ptr noundef %26) #8
  store ptr @empty_environ, ptr @environ, align 8
  store i32 0, ptr %4, align 4
  br label %27

27:                                               ; preds = %40, %24
  %28 = load ptr, ptr %2, align 8
  %29 = load i32, ptr %4, align 4
  %30 = sext i32 %29 to i64
  %31 = getelementptr inbounds ptr, ptr %28, i64 %30
  %32 = load ptr, ptr %31, align 8
  %33 = icmp ne ptr %32, null
  br i1 %33, label %34, label %43

34:                                               ; preds = %27
  %35 = load ptr, ptr %2, align 8
  %36 = load i32, ptr %4, align 4
  %37 = sext i32 %36 to i64
  %38 = getelementptr inbounds ptr, ptr %35, i64 %37
  %39 = load ptr, ptr %38, align 8
  call void @free(ptr noundef %39) #8
  br label %40

40:                                               ; preds = %34
  %41 = load i32, ptr %4, align 4
  %42 = add nsw i32 %41, 1
  store i32 %42, ptr %4, align 4
  br label %27

43:                                               ; preds = %27
  %44 = load ptr, ptr %2, align 8
  call void @free(ptr noundef %44) #8
  br label %45

45:                                               ; preds = %43, %1
  ret void
}