; Function Attrs: nounwind uwtable
define hidden void @cleanup_ps_args(ptr nocapture noundef %0) local_unnamed_addr #0 {
  %2 = load ptr, ptr @save_argv, align 8
  %.not = icmp eq ptr %2, null
  br i1 %.not, label %14, label %3

3:                                                ; preds = %1
  store ptr null, ptr @save_argv, align 8
  %4 = load ptr, ptr @frozen_environ, align 8
  %5 = load ptr, ptr %4, align 8
  %.not1113 = icmp eq ptr %5, null
  br i1 %.not1113, label %._crit_edge, label %.lr.ph

.lr.ph:                                           ; preds = %3, %.lr.ph
  %indvars.iv = phi i64 [ %indvars.iv.next, %.lr.ph ], [ 0, %3 ]
  %6 = phi ptr [ %8, %.lr.ph ], [ %5, %3 ]
  tail call void @free(ptr noundef nonnull %6) #14
  %indvars.iv.next = add nuw nsw i64 %indvars.iv, 1
  %7 = getelementptr inbounds ptr, ptr %4, i64 %indvars.iv.next
  %8 = load ptr, ptr %7, align 8
  %.not11 = icmp eq ptr %8, null
  br i1 %.not11, label %._crit_edge, label %.lr.ph

._crit_edge:                                      ; preds = %.lr.ph, %3
  tail call void @free(ptr noundef nonnull %4) #14
  %9 = load ptr, ptr @new_environ, align 8
  tail call void @free(ptr noundef %9) #14
  store ptr @empty_environ, ptr @environ, align 8
  %10 = load ptr, ptr %0, align 8
  %.not1215 = icmp eq ptr %10, null
  br i1 %.not1215, label %._crit_edge19, label %.lr.ph18

.lr.ph18:                                         ; preds = %._crit_edge, %.lr.ph18
  %indvars.iv21 = phi i64 [ %indvars.iv.next22, %.lr.ph18 ], [ 0, %._crit_edge ]
  %11 = phi ptr [ %13, %.lr.ph18 ], [ %10, %._crit_edge ]
  tail call void @free(ptr noundef nonnull %11) #14
  %indvars.iv.next22 = add nuw nsw i64 %indvars.iv21, 1
  %12 = getelementptr inbounds ptr, ptr %0, i64 %indvars.iv.next22
  %13 = load ptr, ptr %12, align 8
  %.not12 = icmp eq ptr %13, null
  br i1 %.not12, label %._crit_edge19, label %.lr.ph18

._crit_edge19:                                    ; preds = %.lr.ph18, %._crit_edge
  tail call void @free(ptr noundef nonnull %0) #14
  br label %14

14:                                               ; preds = %._crit_edge19, %1
  ret void
}